
_key:

;MyFinalProject.c,20 :: 		unsigned short key(void)
;MyFinalProject.c,22 :: 		k = 0;
	CLRF       _k+0
;MyFinalProject.c,23 :: 		do
L_key0:
;MyFinalProject.c,24 :: 		k = Keypad_Key_Click();
	CALL       _Keypad_Key_Click+0
	MOVF       R0+0, 0
	MOVWF      _k+0
;MyFinalProject.c,25 :: 		while (k==0);
	MOVF       R0+0, 0
	XORLW      0
	BTFSC      STATUS+0, 2
	GOTO       L_key0
;MyFinalProject.c,26 :: 		switch (k)
	GOTO       L_key3
;MyFinalProject.c,28 :: 		case 1: k = 49; break; // 1
L_key5:
	MOVLW      49
	MOVWF      _k+0
	GOTO       L_key4
;MyFinalProject.c,29 :: 		case 2: k = 50; break; // 2
L_key6:
	MOVLW      50
	MOVWF      _k+0
	GOTO       L_key4
;MyFinalProject.c,30 :: 		case 3: k = 51; break; // 3
L_key7:
	MOVLW      51
	MOVWF      _k+0
	GOTO       L_key4
;MyFinalProject.c,31 :: 		case 5: k = 52; break; // 4
L_key8:
	MOVLW      52
	MOVWF      _k+0
	GOTO       L_key4
;MyFinalProject.c,32 :: 		case 6: k = 53; break; // 5
L_key9:
	MOVLW      53
	MOVWF      _k+0
	GOTO       L_key4
;MyFinalProject.c,33 :: 		case 7: k = 54; break; // 6
L_key10:
	MOVLW      54
	MOVWF      _k+0
	GOTO       L_key4
;MyFinalProject.c,34 :: 		case 9: k = 55; break; // 7
L_key11:
	MOVLW      55
	MOVWF      _k+0
	GOTO       L_key4
;MyFinalProject.c,35 :: 		case 10: k = 56; break; // 8
L_key12:
	MOVLW      56
	MOVWF      _k+0
	GOTO       L_key4
;MyFinalProject.c,36 :: 		case 11: k = 57; break; // 9
L_key13:
	MOVLW      57
	MOVWF      _k+0
	GOTO       L_key4
;MyFinalProject.c,37 :: 		case 13: k = 42; break; // *
L_key14:
	MOVLW      42
	MOVWF      _k+0
	GOTO       L_key4
;MyFinalProject.c,38 :: 		case 14: k = 48; break; // 0
L_key15:
	MOVLW      48
	MOVWF      _k+0
	GOTO       L_key4
;MyFinalProject.c,39 :: 		case 15: k = 35; break; // #
L_key16:
	MOVLW      35
	MOVWF      _k+0
	GOTO       L_key4
;MyFinalProject.c,40 :: 		}
L_key3:
	MOVF       _k+0, 0
	XORLW      1
	BTFSC      STATUS+0, 2
	GOTO       L_key5
	MOVF       _k+0, 0
	XORLW      2
	BTFSC      STATUS+0, 2
	GOTO       L_key6
	MOVF       _k+0, 0
	XORLW      3
	BTFSC      STATUS+0, 2
	GOTO       L_key7
	MOVF       _k+0, 0
	XORLW      5
	BTFSC      STATUS+0, 2
	GOTO       L_key8
	MOVF       _k+0, 0
	XORLW      6
	BTFSC      STATUS+0, 2
	GOTO       L_key9
	MOVF       _k+0, 0
	XORLW      7
	BTFSC      STATUS+0, 2
	GOTO       L_key10
	MOVF       _k+0, 0
	XORLW      9
	BTFSC      STATUS+0, 2
	GOTO       L_key11
	MOVF       _k+0, 0
	XORLW      10
	BTFSC      STATUS+0, 2
	GOTO       L_key12
	MOVF       _k+0, 0
	XORLW      11
	BTFSC      STATUS+0, 2
	GOTO       L_key13
	MOVF       _k+0, 0
	XORLW      13
	BTFSC      STATUS+0, 2
	GOTO       L_key14
	MOVF       _k+0, 0
	XORLW      14
	BTFSC      STATUS+0, 2
	GOTO       L_key15
	MOVF       _k+0, 0
	XORLW      15
	BTFSC      STATUS+0, 2
	GOTO       L_key16
L_key4:
;MyFinalProject.c,41 :: 		return k ;
	MOVF       _k+0, 0
	MOVWF      R0+0
;MyFinalProject.c,42 :: 		}
L_end_key:
	RETURN
; end of _key

_interrupt:
	MOVWF      R15+0
	SWAPF      STATUS+0, 0
	CLRF       STATUS+0
	MOVWF      ___saveSTATUS+0
	MOVF       PCLATH+0, 0
	MOVWF      ___savePCLATH+0
	CLRF       PCLATH+0

;MyFinalProject.c,44 :: 		void interrupt(){
;MyFinalProject.c,45 :: 		if(PORTB.RB0==1)
	BTFSS      PORTB+0, 0
	GOTO       L_interrupt17
;MyFinalProject.c,46 :: 		{ x=0;
	CLRF       _x+0
;MyFinalProject.c,47 :: 		count=0;
	CLRF       _count+0
;MyFinalProject.c,48 :: 		INTCON.INTF = 0;
	BCF        INTCON+0, 1
;MyFinalProject.c,49 :: 		delay_ms(10);
	MOVLW      26
	MOVWF      R12+0
	MOVLW      248
	MOVWF      R13+0
L_interrupt18:
	DECFSZ     R13+0, 1
	GOTO       L_interrupt18
	DECFSZ     R12+0, 1
	GOTO       L_interrupt18
	NOP
;MyFinalProject.c,50 :: 		}
	GOTO       L_interrupt19
L_interrupt17:
;MyFinalProject.c,51 :: 		else if(INTCON.T0IF==1)
	BTFSS      INTCON+0, 2
	GOTO       L_interrupt20
;MyFinalProject.c,52 :: 		{    INTCON.T0IF=0 ;
	BCF        INTCON+0, 2
;MyFinalProject.c,53 :: 		PORTA.RA2=1 ;
	BSF        PORTA+0, 2
;MyFinalProject.c,54 :: 		nb=nb-1 ;
	DECF       _nb+0, 1
;MyFinalProject.c,55 :: 		OPTION_REG=0b11000111 ;
	MOVLW      199
	MOVWF      OPTION_REG+0
;MyFinalProject.c,56 :: 		TMR0=0 ;
	CLRF       TMR0+0
;MyFinalProject.c,58 :: 		if(nb==0)
	MOVF       _nb+0, 0
	XORLW      0
	BTFSS      STATUS+0, 2
	GOTO       L_interrupt21
;MyFinalProject.c,59 :: 		{ PORTA.RA2=0 ;
	BCF        PORTA+0, 2
;MyFinalProject.c,60 :: 		nb=150;
	MOVLW      150
	MOVWF      _nb+0
;MyFinalProject.c,61 :: 		x=0;
	CLRF       _x+0
;MyFinalProject.c,62 :: 		OPTION_REG=0b11101000 ;
	MOVLW      232
	MOVWF      OPTION_REG+0
;MyFinalProject.c,63 :: 		TMR0=253 ;
	MOVLW      253
	MOVWF      TMR0+0
;MyFinalProject.c,64 :: 		}
	GOTO       L_interrupt22
L_interrupt21:
;MyFinalProject.c,65 :: 		else if(PORTB.RB6=!PORTB.RB6)
	MOVLW      64
	XORWF      PORTB+0, 1
	BTFSS      PORTB+0, 6
	GOTO       L_interrupt23
;MyFinalProject.c,66 :: 		{ TMR0=253 ;
	MOVLW      253
	MOVWF      TMR0+0
;MyFinalProject.c,67 :: 		OPTION_REG=0b11101000 ;
	MOVLW      232
	MOVWF      OPTION_REG+0
;MyFinalProject.c,68 :: 		x=6;
	MOVLW      6
	MOVWF      _x+0
;MyFinalProject.c,69 :: 		PORTA.RA1=1 ;
	BSF        PORTA+0, 1
;MyFinalProject.c,70 :: 		PORTA.RA2=0 ;
	BCF        PORTA+0, 2
;MyFinalProject.c,71 :: 		nb=150;
	MOVLW      150
	MOVWF      _nb+0
;MyFinalProject.c,72 :: 		INTCON.RBIF=0;
	BCF        INTCON+0, 0
;MyFinalProject.c,73 :: 		delay_ms(100);
	MOVLW      2
	MOVWF      R11+0
	MOVLW      4
	MOVWF      R12+0
	MOVLW      186
	MOVWF      R13+0
L_interrupt24:
	DECFSZ     R13+0, 1
	GOTO       L_interrupt24
	DECFSZ     R12+0, 1
	GOTO       L_interrupt24
	DECFSZ     R11+0, 1
	GOTO       L_interrupt24
	NOP
;MyFinalProject.c,74 :: 		}
L_interrupt23:
L_interrupt22:
;MyFinalProject.c,76 :: 		}
L_interrupt20:
L_interrupt19:
;MyFinalProject.c,78 :: 		}
L_end_interrupt:
L__interrupt60:
	MOVF       ___savePCLATH+0, 0
	MOVWF      PCLATH+0
	SWAPF      ___saveSTATUS+0, 0
	MOVWF      STATUS+0
	SWAPF      R15+0, 1
	SWAPF      R15+0, 0
	RETFIE
; end of _interrupt

_main:

;MyFinalProject.c,80 :: 		void main() {
;MyFinalProject.c,81 :: 		TRISA = 0b110001 ;
	MOVLW      49
	MOVWF      TRISA+0
;MyFinalProject.c,82 :: 		TRISB = 1 ;
	MOVLW      1
	MOVWF      TRISB+0
;MyFinalProject.c,83 :: 		TRISC = 0 ;
	CLRF       TRISC+0
;MyFinalProject.c,84 :: 		TRISE = 0 ;
	CLRF       TRISE+0
;MyFinalProject.c,85 :: 		ADC_Init();
	CALL       _ADC_Init+0
;MyFinalProject.c,86 :: 		Keypad_Init();
	CALL       _Keypad_Init+0
;MyFinalProject.c,87 :: 		Lcd_Init();
	CALL       _Lcd_Init+0
;MyFinalProject.c,88 :: 		Lcd_Cmd(_LCD_CURSOR_OFF);
	MOVLW      12
	MOVWF      FARG_Lcd_Cmd_out_char+0
	CALL       _Lcd_Cmd+0
;MyFinalProject.c,89 :: 		INTCON.GIE=1 ;
	BSF        INTCON+0, 7
;MyFinalProject.c,90 :: 		INTCON.RBIE=1 ;
	BSF        INTCON+0, 3
;MyFinalProject.c,93 :: 		while(x==0)
L_main25:
	MOVF       _x+0, 0
	XORLW      0
	BTFSS      STATUS+0, 2
	GOTO       L_main26
;MyFinalProject.c,94 :: 		{    INTCON.T0IE=1;
	BSF        INTCON+0, 5
;MyFinalProject.c,95 :: 		OPTION_REG=0b11101000 ;
	MOVLW      232
	MOVWF      OPTION_REG+0
;MyFinalProject.c,96 :: 		TMR0=253;
	MOVLW      253
	MOVWF      TMR0+0
;MyFinalProject.c,97 :: 		PORTC.RC7 = 0 ;
	BCF        PORTC+0, 7
;MyFinalProject.c,98 :: 		PORTA.RA3 = 0 ;
	BCF        PORTA+0, 3
;MyFinalProject.c,99 :: 		PORTA.RA2 = 0 ;
	BCF        PORTA+0, 2
;MyFinalProject.c,100 :: 		PORTA.RA1 = 0 ;
	BCF        PORTA+0, 1
;MyFinalProject.c,102 :: 		PORTE = 0 ;
	CLRF       PORTE+0
;MyFinalProject.c,103 :: 		PORTC = 0 ;
	CLRF       PORTC+0
;MyFinalProject.c,106 :: 		Lcd_Cmd(_LCD_CLEAR);
	MOVLW      1
	MOVWF      FARG_Lcd_Cmd_out_char+0
	CALL       _Lcd_Cmd+0
;MyFinalProject.c,107 :: 		Lcd_Out(1,1,"Bienvenue");
	MOVLW      1
	MOVWF      FARG_Lcd_Out_row+0
	MOVLW      1
	MOVWF      FARG_Lcd_Out_column+0
	MOVLW      ?lstr1_MyFinalProject+0
	MOVWF      FARG_Lcd_Out_text+0
	CALL       _Lcd_Out+0
;MyFinalProject.c,108 :: 		Lcd_Out(2,1,"Saisir le code");
	MOVLW      2
	MOVWF      FARG_Lcd_Out_row+0
	MOVLW      1
	MOVWF      FARG_Lcd_Out_column+0
	MOVLW      ?lstr2_MyFinalProject+0
	MOVWF      FARG_Lcd_Out_text+0
	CALL       _Lcd_Out+0
;MyFinalProject.c,109 :: 		PORTE = 0b010 ;
	MOVLW      2
	MOVWF      PORTE+0
;MyFinalProject.c,113 :: 		for(i=0;i<4;i++)
	CLRF       _i+0
L_main27:
	MOVLW      4
	SUBWF      _i+0, 0
	BTFSC      STATUS+0, 0
	GOTO       L_main28
;MyFinalProject.c,115 :: 		k=key();
	CALL       _key+0
	MOVF       R0+0, 0
	MOVWF      _k+0
;MyFinalProject.c,116 :: 		Lcd_Out(1,12+i,"*");
	MOVLW      1
	MOVWF      FARG_Lcd_Out_row+0
	MOVF       _i+0, 0
	ADDLW      12
	MOVWF      FARG_Lcd_Out_column+0
	MOVLW      ?lstr3_MyFinalProject+0
	MOVWF      FARG_Lcd_Out_text+0
	CALL       _Lcd_Out+0
;MyFinalProject.c,117 :: 		delay_ms(100);
	MOVLW      2
	MOVWF      R11+0
	MOVLW      4
	MOVWF      R12+0
	MOVLW      186
	MOVWF      R13+0
L_main30:
	DECFSZ     R13+0, 1
	GOTO       L_main30
	DECFSZ     R12+0, 1
	GOTO       L_main30
	DECFSZ     R11+0, 1
	GOTO       L_main30
	NOP
;MyFinalProject.c,118 :: 		if(mdp[i]+48==k)
	MOVF       _i+0, 0
	ADDLW      _mdp+0
	MOVWF      FSR
	MOVLW      48
	ADDWF      INDF+0, 0
	MOVWF      R1+0
	CLRF       R1+1
	BTFSC      STATUS+0, 0
	INCF       R1+1, 1
	MOVLW      0
	XORWF      R1+1, 0
	BTFSS      STATUS+0, 2
	GOTO       L__main62
	MOVF       _k+0, 0
	XORWF      R1+0, 0
L__main62:
	BTFSS      STATUS+0, 2
	GOTO       L_main31
;MyFinalProject.c,120 :: 		count++;
	INCF       _count+0, 1
;MyFinalProject.c,121 :: 		}
L_main31:
;MyFinalProject.c,113 :: 		for(i=0;i<4;i++)
	INCF       _i+0, 1
;MyFinalProject.c,122 :: 		}
	GOTO       L_main27
L_main28:
;MyFinalProject.c,124 :: 		delay_ms(200);
	MOVLW      3
	MOVWF      R11+0
	MOVLW      8
	MOVWF      R12+0
	MOVLW      119
	MOVWF      R13+0
L_main32:
	DECFSZ     R13+0, 1
	GOTO       L_main32
	DECFSZ     R12+0, 1
	GOTO       L_main32
	DECFSZ     R11+0, 1
	GOTO       L_main32
;MyFinalProject.c,126 :: 		if(count==4)
	MOVF       _count+0, 0
	XORLW      4
	BTFSS      STATUS+0, 2
	GOTO       L_main33
;MyFinalProject.c,127 :: 		{  INTCON.INTE=1 ;
	BSF        INTCON+0, 4
;MyFinalProject.c,128 :: 		OPTION_REG.INTEDG=1 ;
	BSF        OPTION_REG+0, 6
;MyFinalProject.c,129 :: 		while(INTCON.INTF==0)
L_main34:
	BTFSC      INTCON+0, 1
	GOTO       L_main35
;MyFinalProject.c,131 :: 		PORTE = 0b101 ;
	MOVLW      5
	MOVWF      PORTE+0
;MyFinalProject.c,132 :: 		count = 0;
	CLRF       _count+0
;MyFinalProject.c,133 :: 		Lcd_Cmd(_LCD_CLEAR);
	MOVLW      1
	MOVWF      FARG_Lcd_Cmd_out_char+0
	CALL       _Lcd_Cmd+0
;MyFinalProject.c,134 :: 		Lcd_Out(1,1,"Acces autorise ");
	MOVLW      1
	MOVWF      FARG_Lcd_Out_row+0
	MOVLW      1
	MOVWF      FARG_Lcd_Out_column+0
	MOVLW      ?lstr4_MyFinalProject+0
	MOVWF      FARG_Lcd_Out_text+0
	CALL       _Lcd_Out+0
;MyFinalProject.c,135 :: 		PORTA.RA1 = 1 ;
	BSF        PORTA+0, 1
;MyFinalProject.c,136 :: 		delay_ms(5000);
	MOVLW      51
	MOVWF      R11+0
	MOVLW      187
	MOVWF      R12+0
	MOVLW      223
	MOVWF      R13+0
L_main36:
	DECFSZ     R13+0, 1
	GOTO       L_main36
	DECFSZ     R12+0, 1
	GOTO       L_main36
	DECFSZ     R11+0, 1
	GOTO       L_main36
	NOP
	NOP
;MyFinalProject.c,137 :: 		PORTA.RA1 = 0 ;
	BCF        PORTA+0, 1
;MyFinalProject.c,139 :: 		Temp=adc_read(0);         // Read analog voltage
	CLRF       FARG_ADC_Read_channel+0
	CALL       _ADC_Read+0
	MOVF       R0+0, 0
	MOVWF      _Temp+0
;MyFinalProject.c,140 :: 		Temp=Temp*0.488 ;         // convert it to degree Celsius (0.488 = 500/1023)
	CALL       _byte2double+0
	MOVLW      35
	MOVWF      R4+0
	MOVLW      219
	MOVWF      R4+1
	MOVLW      121
	MOVWF      R4+2
	MOVLW      125
	MOVWF      R4+3
	CALL       _Mul_32x32_FP+0
	CALL       _double2byte+0
	MOVF       R0+0, 0
	MOVWF      _Temp+0
;MyFinalProject.c,142 :: 		if(Temp <= 15.0)
	CALL       _byte2double+0
	MOVF       R0+0, 0
	MOVWF      R4+0
	MOVF       R0+1, 0
	MOVWF      R4+1
	MOVF       R0+2, 0
	MOVWF      R4+2
	MOVF       R0+3, 0
	MOVWF      R4+3
	MOVLW      0
	MOVWF      R0+0
	MOVLW      0
	MOVWF      R0+1
	MOVLW      112
	MOVWF      R0+2
	MOVLW      130
	MOVWF      R0+3
	CALL       _Compare_Double+0
	MOVLW      1
	BTFSS      STATUS+0, 0
	MOVLW      0
	MOVWF      R0+0
	MOVF       R0+0, 0
	BTFSC      STATUS+0, 2
	GOTO       L_main37
;MyFinalProject.c,143 :: 		{Lcd_Cmd(_LCD_CLEAR);
	MOVLW      1
	MOVWF      FARG_Lcd_Cmd_out_char+0
	CALL       _Lcd_Cmd+0
;MyFinalProject.c,144 :: 		Lcd_Out(1,1,"Chauffage");
	MOVLW      1
	MOVWF      FARG_Lcd_Out_row+0
	MOVLW      1
	MOVWF      FARG_Lcd_Out_column+0
	MOVLW      ?lstr5_MyFinalProject+0
	MOVWF      FARG_Lcd_Out_text+0
	CALL       _Lcd_Out+0
;MyFinalProject.c,145 :: 		PORTA.RA3 = 1 ;
	BSF        PORTA+0, 3
;MyFinalProject.c,146 :: 		delay_ms(5000);
	MOVLW      51
	MOVWF      R11+0
	MOVLW      187
	MOVWF      R12+0
	MOVLW      223
	MOVWF      R13+0
L_main38:
	DECFSZ     R13+0, 1
	GOTO       L_main38
	DECFSZ     R12+0, 1
	GOTO       L_main38
	DECFSZ     R11+0, 1
	GOTO       L_main38
	NOP
	NOP
;MyFinalProject.c,147 :: 		PORTA.RA3 = 0 ;
	BCF        PORTA+0, 3
;MyFinalProject.c,149 :: 		}
	GOTO       L_main39
L_main37:
;MyFinalProject.c,150 :: 		else if(Temp >= 28.0)
	MOVF       _Temp+0, 0
	MOVWF      R0+0
	CALL       _byte2double+0
	MOVLW      0
	MOVWF      R4+0
	MOVLW      0
	MOVWF      R4+1
	MOVLW      96
	MOVWF      R4+2
	MOVLW      131
	MOVWF      R4+3
	CALL       _Compare_Double+0
	MOVLW      1
	BTFSS      STATUS+0, 0
	MOVLW      0
	MOVWF      R0+0
	MOVF       R0+0, 0
	BTFSC      STATUS+0, 2
	GOTO       L_main40
;MyFinalProject.c,151 :: 		{Lcd_Cmd(_LCD_CLEAR);
	MOVLW      1
	MOVWF      FARG_Lcd_Cmd_out_char+0
	CALL       _Lcd_Cmd+0
;MyFinalProject.c,152 :: 		Lcd_Out(1,1,"Climatiseur");
	MOVLW      1
	MOVWF      FARG_Lcd_Out_row+0
	MOVLW      1
	MOVWF      FARG_Lcd_Out_column+0
	MOVLW      ?lstr6_MyFinalProject+0
	MOVWF      FARG_Lcd_Out_text+0
	CALL       _Lcd_Out+0
;MyFinalProject.c,153 :: 		PORTA.RA3 = 1 ;
	BSF        PORTA+0, 3
;MyFinalProject.c,154 :: 		delay_ms(5000);
	MOVLW      51
	MOVWF      R11+0
	MOVLW      187
	MOVWF      R12+0
	MOVLW      223
	MOVWF      R13+0
L_main41:
	DECFSZ     R13+0, 1
	GOTO       L_main41
	DECFSZ     R12+0, 1
	GOTO       L_main41
	DECFSZ     R11+0, 1
	GOTO       L_main41
	NOP
	NOP
;MyFinalProject.c,155 :: 		PORTA.RA3 = 0 ;
	BCF        PORTA+0, 3
;MyFinalProject.c,157 :: 		}
L_main40:
L_main39:
;MyFinalProject.c,158 :: 		}
	GOTO       L_main34
L_main35:
;MyFinalProject.c,159 :: 		}
	GOTO       L_main42
L_main33:
;MyFinalProject.c,162 :: 		{ x=1  ;
	MOVLW      1
	MOVWF      _x+0
;MyFinalProject.c,163 :: 		INTCON.INTE=1 ;
	BSF        INTCON+0, 4
;MyFinalProject.c,164 :: 		OPTION_REG.INTEDG=1 ;
	BSF        OPTION_REG+0, 6
;MyFinalProject.c,166 :: 		Lcd_Cmd(_LCD_CLEAR);
	MOVLW      1
	MOVWF      FARG_Lcd_Cmd_out_char+0
	CALL       _Lcd_Cmd+0
;MyFinalProject.c,167 :: 		Lcd_Out(1,1,"Acces refuse");
	MOVLW      1
	MOVWF      FARG_Lcd_Out_row+0
	MOVLW      1
	MOVWF      FARG_Lcd_Out_column+0
	MOVLW      ?lstr7_MyFinalProject+0
	MOVWF      FARG_Lcd_Out_text+0
	CALL       _Lcd_Out+0
;MyFinalProject.c,168 :: 		count=0;
	CLRF       _count+0
;MyFinalProject.c,169 :: 		PORTC.RC7=1 ;
	BSF        PORTC+0, 7
;MyFinalProject.c,170 :: 		while(x==1)
L_main43:
	MOVF       _x+0, 0
	XORLW      1
	BTFSS      STATUS+0, 2
	GOTO       L_main44
;MyFinalProject.c,172 :: 		PORTA.RA2=1 ;
	BSF        PORTA+0, 2
;MyFinalProject.c,173 :: 		delay_ms(300);
	MOVLW      4
	MOVWF      R11+0
	MOVLW      12
	MOVWF      R12+0
	MOVLW      51
	MOVWF      R13+0
L_main45:
	DECFSZ     R13+0, 1
	GOTO       L_main45
	DECFSZ     R12+0, 1
	GOTO       L_main45
	DECFSZ     R11+0, 1
	GOTO       L_main45
	NOP
	NOP
;MyFinalProject.c,174 :: 		PORTA.RA2=0 ;
	BCF        PORTA+0, 2
;MyFinalProject.c,175 :: 		delay_ms(300);
	MOVLW      4
	MOVWF      R11+0
	MOVLW      12
	MOVWF      R12+0
	MOVLW      51
	MOVWF      R13+0
L_main46:
	DECFSZ     R13+0, 1
	GOTO       L_main46
	DECFSZ     R12+0, 1
	GOTO       L_main46
	DECFSZ     R11+0, 1
	GOTO       L_main46
	NOP
	NOP
;MyFinalProject.c,176 :: 		}
	GOTO       L_main43
L_main44:
;MyFinalProject.c,177 :: 		}
L_main42:
;MyFinalProject.c,180 :: 		}
	GOTO       L_main25
L_main26:
;MyFinalProject.c,183 :: 		while(x==6)
L_main47:
	MOVF       _x+0, 0
	XORLW      6
	BTFSS      STATUS+0, 2
	GOTO       L_main48
;MyFinalProject.c,184 :: 		{       count=0;
	CLRF       _count+0
;MyFinalProject.c,186 :: 		Lcd_Cmd(_LCD_CLEAR);
	MOVLW      1
	MOVWF      FARG_Lcd_Cmd_out_char+0
	CALL       _Lcd_Cmd+0
;MyFinalProject.c,187 :: 		Lcd_Out(2,1,"Saisir le code");
	MOVLW      2
	MOVWF      FARG_Lcd_Out_row+0
	MOVLW      1
	MOVWF      FARG_Lcd_Out_column+0
	MOVLW      ?lstr8_MyFinalProject+0
	MOVWF      FARG_Lcd_Out_text+0
	CALL       _Lcd_Out+0
;MyFinalProject.c,188 :: 		for(i=0;i<4;i++)
	CLRF       _i+0
L_main49:
	MOVLW      4
	SUBWF      _i+0, 0
	BTFSC      STATUS+0, 0
	GOTO       L_main50
;MyFinalProject.c,190 :: 		k=key();
	CALL       _key+0
	MOVF       R0+0, 0
	MOVWF      _k+0
;MyFinalProject.c,191 :: 		Lcd_Out(1,12+i,"*");
	MOVLW      1
	MOVWF      FARG_Lcd_Out_row+0
	MOVF       _i+0, 0
	ADDLW      12
	MOVWF      FARG_Lcd_Out_column+0
	MOVLW      ?lstr9_MyFinalProject+0
	MOVWF      FARG_Lcd_Out_text+0
	CALL       _Lcd_Out+0
;MyFinalProject.c,192 :: 		delay_ms(100);
	MOVLW      2
	MOVWF      R11+0
	MOVLW      4
	MOVWF      R12+0
	MOVLW      186
	MOVWF      R13+0
L_main52:
	DECFSZ     R13+0, 1
	GOTO       L_main52
	DECFSZ     R12+0, 1
	GOTO       L_main52
	DECFSZ     R11+0, 1
	GOTO       L_main52
	NOP
;MyFinalProject.c,193 :: 		pin[i]=k-48 ;
	MOVF       _i+0, 0
	ADDLW      _pin+0
	MOVWF      FSR
	MOVLW      48
	SUBWF      _k+0, 0
	MOVWF      R0+0
	MOVF       R0+0, 0
	MOVWF      INDF+0
;MyFinalProject.c,194 :: 		count++;
	INCF       _count+0, 1
;MyFinalProject.c,188 :: 		for(i=0;i<4;i++)
	INCF       _i+0, 1
;MyFinalProject.c,195 :: 		}
	GOTO       L_main49
L_main50:
;MyFinalProject.c,196 :: 		if(count==4)
	MOVF       _count+0, 0
	XORLW      4
	BTFSS      STATUS+0, 2
	GOTO       L_main53
;MyFinalProject.c,198 :: 		if(PORTB.RB7==1)
	BTFSS      PORTB+0, 7
	GOTO       L_main54
;MyFinalProject.c,199 :: 		{Lcd_Cmd(_LCD_CLEAR);
	MOVLW      1
	MOVWF      FARG_Lcd_Cmd_out_char+0
	CALL       _Lcd_Cmd+0
;MyFinalProject.c,200 :: 		Lcd_Out(1,1,"code change");
	MOVLW      1
	MOVWF      FARG_Lcd_Out_row+0
	MOVLW      1
	MOVWF      FARG_Lcd_Out_column+0
	MOVLW      ?lstr10_MyFinalProject+0
	MOVWF      FARG_Lcd_Out_text+0
	CALL       _Lcd_Out+0
;MyFinalProject.c,201 :: 		for(i=0;i<4;i++)
	CLRF       _i+0
L_main55:
	MOVLW      4
	SUBWF      _i+0, 0
	BTFSC      STATUS+0, 0
	GOTO       L_main56
;MyFinalProject.c,202 :: 		{  mdp[i]=pin[i] ;
	MOVF       _i+0, 0
	ADDLW      _mdp+0
	MOVWF      R1+0
	MOVF       _i+0, 0
	ADDLW      _pin+0
	MOVWF      FSR
	MOVF       INDF+0, 0
	MOVWF      R0+0
	MOVF       R1+0, 0
	MOVWF      FSR
	MOVF       R0+0, 0
	MOVWF      INDF+0
;MyFinalProject.c,201 :: 		for(i=0;i<4;i++)
	INCF       _i+0, 1
;MyFinalProject.c,203 :: 		}
	GOTO       L_main55
L_main56:
;MyFinalProject.c,204 :: 		x=0 ;
	CLRF       _x+0
;MyFinalProject.c,205 :: 		}
L_main54:
;MyFinalProject.c,206 :: 		}
L_main53:
;MyFinalProject.c,207 :: 		}
	GOTO       L_main47
L_main48:
;MyFinalProject.c,208 :: 		}
L_end_main:
	GOTO       $+0
; end of _main
